target datalayout = "e-m:e-p270:32:32-p271:32:32-p272:64:64-i64:64-i128:128-f80:128-n8:16:32:64-S128"
target triple = "x86_64-pc-linux-gnu"

%struct.Halfedge = type { ptr, ptr, ptr, i32, i8, ptr, double, ptr }

; Function Attrs: nounwind uwtable
define void @ELinsert(ptr noundef %0, ptr noundef %1) #0 {
  %3 = alloca ptr, align 8
  %4 = alloca ptr, align 8
  store ptr %0, ptr %3, align 8, !tbaa !10
  store ptr %1, ptr %4, align 8, !tbaa !10
  %5 = load ptr, ptr %3, align 8, !tbaa !10
  %6 = load ptr, ptr %4, align 8, !tbaa !10
  %7 = getelementptr inbounds nuw %struct.Halfedge, ptr %6, i32 0, i32 0
  store ptr %5, ptr %7, align 8, !tbaa !14
  %8 = load ptr, ptr %3, align 8, !tbaa !10
  %9 = getelementptr inbounds nuw %struct.Halfedge, ptr %8, i32 0, i32 1
  %10 = load ptr, ptr %9, align 8, !tbaa !19
  %11 = load ptr, ptr %4, align 8, !tbaa !10
  %12 = getelementptr inbounds nuw %struct.Halfedge, ptr %11, i32 0, i32 1
  store ptr %10, ptr %12, align 8, !tbaa !19
  %13 = load ptr, ptr %4, align 8, !tbaa !10
  %14 = load ptr, ptr %3, align 8, !tbaa !10
  %15 = getelementptr inbounds nuw %struct.Halfedge, ptr %14, i32 0, i32 1
  %16 = load ptr, ptr %15, align 8, !tbaa !19
  %17 = getelementptr inbounds nuw %struct.Halfedge, ptr %16, i32 0, i32 0
  store ptr %13, ptr %17, align 8, !tbaa !14
  %18 = load ptr, ptr %4, align 8, !tbaa !10
  %19 = load ptr, ptr %3, align 8, !tbaa !10
  %20 = getelementptr inbounds nuw %struct.Halfedge, ptr %19, i32 0, i32 1
  store ptr %18, ptr %20, align 8, !tbaa !19
  ret void
}