; Function Attrs: mustprogress nofree norecurse nosync nounwind willreturn memory(write, argmem: readwrite, inaccessiblemem: none) uwtable
define void @ELinsert(ptr noundef %0, ptr noundef initializes((0, 16)) %1) local_unnamed_addr #5 {
  store ptr %0, ptr %1, align 8, !tbaa !23
  %3 = getelementptr inbounds nuw i8, ptr %0, i64 8
  %4 = load ptr, ptr %3, align 8, !tbaa !24
  %5 = getelementptr inbounds nuw i8, ptr %1, i64 8
  store ptr %4, ptr %5, align 8, !tbaa !24
  store ptr %1, ptr %4, align 8, !tbaa !23
  store ptr %1, ptr %3, align 8, !tbaa !24
  ret void
}